target datalayout = "e-m:e-p270:32:32-p271:32:32-p272:64:64-i64:64-i128:128-f80:128-n8:16:32:64-S128"
target triple = "x86_64-pc-linux-gnu"

%struct.FLAC__EntropyCodingMethod = type { i32, %union.anon.1 }
%union.anon.1 = type { %struct.FLAC__EntropyCodingMethod_PartitionedRice }
%struct.FLAC__EntropyCodingMethod_PartitionedRice = type { i32, ptr }
%struct.FLAC__EntropyCodingMethod_PartitionedRiceContents = type { ptr, ptr, i32 }
%struct.FLAC__Subframe_LPC = type { %struct.FLAC__EntropyCodingMethod, i32, i32, i32, [32 x i32], [32 x i64], ptr }

@FLAC__SUBFRAME_ZERO_PAD_LEN = external constant i32, align 4
@FLAC__SUBFRAME_TYPE_LEN = external constant i32, align 4
@FLAC__SUBFRAME_WASTED_BITS_FLAG_LEN = external constant i32, align 4
@FLAC__SUBFRAME_TYPE_LPC_BYTE_ALIGNED_MASK = external constant i32, align 4
@FLAC__SUBFRAME_LPC_QLP_COEFF_PRECISION_LEN = external constant i32, align 4
@FLAC__SUBFRAME_LPC_QLP_SHIFT_LEN = external constant i32, align 4
@FLAC__ENTROPY_CODING_METHOD_TYPE_LEN = external constant i32, align 4
@FLAC__ENTROPY_CODING_METHOD_PARTITIONED_RICE_ORDER_LEN = external constant i32, align 4

; Function Attrs: nounwind sspstrong uwtable
define internal i32 @add_entropy_coding_method_(ptr noundef %0, ptr noundef %1) #0 {
  %3 = alloca i32, align 4
  %4 = alloca ptr, align 8
  %5 = alloca ptr, align 8
  store ptr %0, ptr %4, align 8, !tbaa !8
  store ptr %1, ptr %5, align 8, !tbaa !30
  %6 = load ptr, ptr %4, align 8, !tbaa !8
  %7 = load ptr, ptr %5, align 8, !tbaa !30
  %8 = getelementptr inbounds nuw %struct.FLAC__EntropyCodingMethod, ptr %7, i32 0, i32 0
  %9 = load i32, ptr %8, align 8, !tbaa !61
  %10 = load i32, ptr @FLAC__ENTROPY_CODING_METHOD_TYPE_LEN, align 4, !tbaa !10
  %11 = call i32 @FLAC__bitwriter_write_raw_uint32(ptr noundef %6, i32 noundef %9, i32 noundef %10)
  %12 = icmp ne i32 %11, 0
  br i1 %12, label %14, label %13

13:                                               ; preds = %2
  store i32 0, ptr %3, align 4
  br label %31

14:                                               ; preds = %2
  %15 = load ptr, ptr %5, align 8, !tbaa !30
  %16 = getelementptr inbounds nuw %struct.FLAC__EntropyCodingMethod, ptr %15, i32 0, i32 0
  %17 = load i32, ptr %16, align 8, !tbaa !61
  switch i32 %17, label %29 [
    i32 0, label %18
    i32 1, label %18
  ]

18:                                               ; preds = %14, %14
  %19 = load ptr, ptr %4, align 8, !tbaa !8
  %20 = load ptr, ptr %5, align 8, !tbaa !30
  %21 = getelementptr inbounds nuw %struct.FLAC__EntropyCodingMethod, ptr %20, i32 0, i32 1
  %22 = getelementptr inbounds nuw %struct.FLAC__EntropyCodingMethod_PartitionedRice, ptr %21, i32 0, i32 0
  %23 = load i32, ptr %22, align 8, !tbaa !18
  %24 = load i32, ptr @FLAC__ENTROPY_CODING_METHOD_PARTITIONED_RICE_ORDER_LEN, align 4, !tbaa !10
  %25 = call i32 @FLAC__bitwriter_write_raw_uint32(ptr noundef %19, i32 noundef %23, i32 noundef %24)
  %26 = icmp ne i32 %25, 0
  br i1 %26, label %28, label %27

27:                                               ; preds = %18
  store i32 0, ptr %3, align 4
  br label %31

28:                                               ; preds = %18
  br label %30

29:                                               ; preds = %14
  br label %30

30:                                               ; preds = %29, %28
  store i32 1, ptr %3, align 4
  br label %31

31:                                               ; preds = %30, %27, %13
  %32 = load i32, ptr %3, align 4
  ret i32 %32
}

; Function Attrs: nounwind sspstrong uwtable
define hidden i32 @FLAC__subframe_add_lpc(ptr noundef %0, i32 noundef %1, i32 noundef %2, i32 noundef %3, ptr noundef %4) #0 {
  %6 = alloca i32, align 4
  %7 = alloca ptr, align 8
  %8 = alloca i32, align 4
  %9 = alloca i32, align 4
  %10 = alloca i32, align 4
  %11 = alloca ptr, align 8
  %12 = alloca i32, align 4
  %13 = alloca i32, align 4
  store ptr %0, ptr %7, align 8, !tbaa !30
  store i32 %1, ptr %8, align 4, !tbaa !10
  store i32 %2, ptr %9, align 4, !tbaa !10
  store i32 %3, ptr %10, align 4, !tbaa !10
  store ptr %4, ptr %11, align 8, !tbaa !8
  call void @llvm.lifetime.start.p0(i64 4, ptr %12) #4
  %14 = load ptr, ptr %11, align 8, !tbaa !8
  %15 = load i32, ptr @FLAC__SUBFRAME_TYPE_LPC_BYTE_ALIGNED_MASK, align 4, !tbaa !10
  %16 = load ptr, ptr %7, align 8, !tbaa !30
  %17 = getelementptr inbounds nuw %struct.FLAC__Subframe_LPC, ptr %16, i32 0, i32 1
  %18 = load i32, ptr %17, align 8, !tbaa !66
  %19 = sub i32 %18, 1
  %20 = shl i32 %19, 1
  %21 = or i32 %15, %20
  %22 = load i32, ptr %10, align 4, !tbaa !10
  %23 = icmp ne i32 %22, 0
  %24 = select i1 %23, i32 1, i32 0
  %25 = or i32 %21, %24
  %26 = load i32, ptr @FLAC__SUBFRAME_ZERO_PAD_LEN, align 4, !tbaa !10
  %27 = load i32, ptr @FLAC__SUBFRAME_TYPE_LEN, align 4, !tbaa !10
  %28 = add i32 %26, %27
  %29 = load i32, ptr @FLAC__SUBFRAME_WASTED_BITS_FLAG_LEN, align 4, !tbaa !10
  %30 = add i32 %28, %29
  %31 = call i32 @FLAC__bitwriter_write_raw_uint32(ptr noundef %14, i32 noundef %25, i32 noundef %30)
  %32 = icmp ne i32 %31, 0
  br i1 %32, label %34, label %33

33:                                               ; preds = %5
  store i32 0, ptr %6, align 4
  store i32 1, ptr %13, align 4
  br label %164

34:                                               ; preds = %5
  %35 = load i32, ptr %10, align 4, !tbaa !10
  %36 = icmp ne i32 %35, 0
  br i1 %36, label %37, label %45

37:                                               ; preds = %34
  %38 = load ptr, ptr %11, align 8, !tbaa !8
  %39 = load i32, ptr %10, align 4, !tbaa !10
  %40 = sub i32 %39, 1
  %41 = call i32 @FLAC__bitwriter_write_unary_unsigned(ptr noundef %38, i32 noundef %40)
  %42 = icmp ne i32 %41, 0
  br i1 %42, label %44, label %43

43:                                               ; preds = %37
  store i32 0, ptr %6, align 4
  store i32 1, ptr %13, align 4
  br label %164

44:                                               ; preds = %37
  br label %45

45:                                               ; preds = %44, %34
  store i32 0, ptr %12, align 4, !tbaa !10
  br label %46

46:                                               ; preds = %65, %45
  %47 = load i32, ptr %12, align 4, !tbaa !10
  %48 = load ptr, ptr %7, align 8, !tbaa !30
  %49 = getelementptr inbounds nuw %struct.FLAC__Subframe_LPC, ptr %48, i32 0, i32 1
  %50 = load i32, ptr %49, align 8, !tbaa !66
  %51 = icmp ult i32 %47, %50
  br i1 %51, label %52, label %68

52:                                               ; preds = %46
  %53 = load ptr, ptr %11, align 8, !tbaa !8
  %54 = load ptr, ptr %7, align 8, !tbaa !30
  %55 = getelementptr inbounds nuw %struct.FLAC__Subframe_LPC, ptr %54, i32 0, i32 5
  %56 = load i32, ptr %12, align 4, !tbaa !10
  %57 = zext i32 %56 to i64
  %58 = getelementptr inbounds nuw [32 x i64], ptr %55, i64 0, i64 %57
  %59 = load i64, ptr %58, align 8, !tbaa !41
  %60 = load i32, ptr %9, align 4, !tbaa !10
  %61 = call i32 @FLAC__bitwriter_write_raw_int64(ptr noundef %53, i64 noundef %59, i32 noundef %60)
  %62 = icmp ne i32 %61, 0
  br i1 %62, label %64, label %63

63:                                               ; preds = %52
  store i32 0, ptr %6, align 4
  store i32 1, ptr %13, align 4
  br label %164

64:                                               ; preds = %52
  br label %65

65:                                               ; preds = %64
  %66 = load i32, ptr %12, align 4, !tbaa !10
  %67 = add i32 %66, 1
  store i32 %67, ptr %12, align 4, !tbaa !10
  br label %46, !llvm.loop !68

68:                                               ; preds = %46
  %69 = load ptr, ptr %11, align 8, !tbaa !8
  %70 = load ptr, ptr %7, align 8, !tbaa !30
  %71 = getelementptr inbounds nuw %struct.FLAC__Subframe_LPC, ptr %70, i32 0, i32 2
  %72 = load i32, ptr %71, align 4, !tbaa !69
  %73 = sub i32 %72, 1
  %74 = load i32, ptr @FLAC__SUBFRAME_LPC_QLP_COEFF_PRECISION_LEN, align 4, !tbaa !10
  %75 = call i32 @FLAC__bitwriter_write_raw_uint32(ptr noundef %69, i32 noundef %73, i32 noundef %74)
  %76 = icmp ne i32 %75, 0
  br i1 %76, label %78, label %77

77:                                               ; preds = %68
  store i32 0, ptr %6, align 4
  store i32 1, ptr %13, align 4
  br label %164

78:                                               ; preds = %68
  %79 = load ptr, ptr %11, align 8, !tbaa !8
  %80 = load ptr, ptr %7, align 8, !tbaa !30
  %81 = getelementptr inbounds nuw %struct.FLAC__Subframe_LPC, ptr %80, i32 0, i32 3
  %82 = load i32, ptr %81, align 8, !tbaa !70
  %83 = load i32, ptr @FLAC__SUBFRAME_LPC_QLP_SHIFT_LEN, align 4, !tbaa !10
  %84 = call i32 @FLAC__bitwriter_write_raw_int32(ptr noundef %79, i32 noundef %82, i32 noundef %83)
  %85 = icmp ne i32 %84, 0
  br i1 %85, label %87, label %86

86:                                               ; preds = %78
  store i32 0, ptr %6, align 4
  store i32 1, ptr %13, align 4
  br label %164

87:                                               ; preds = %78
  store i32 0, ptr %12, align 4, !tbaa !10
  br label %88

88:                                               ; preds = %109, %87
  %89 = load i32, ptr %12, align 4, !tbaa !10
  %90 = load ptr, ptr %7, align 8, !tbaa !30
  %91 = getelementptr inbounds nuw %struct.FLAC__Subframe_LPC, ptr %90, i32 0, i32 1
  %92 = load i32, ptr %91, align 8, !tbaa !66
  %93 = icmp ult i32 %89, %92
  br i1 %93, label %94, label %112

94:                                               ; preds = %88
  %95 = load ptr, ptr %11, align 8, !tbaa !8
  %96 = load ptr, ptr %7, align 8, !tbaa !30
  %97 = getelementptr inbounds nuw %struct.FLAC__Subframe_LPC, ptr %96, i32 0, i32 4
  %98 = load i32, ptr %12, align 4, !tbaa !10
  %99 = zext i32 %98 to i64
  %100 = getelementptr inbounds nuw [32 x i32], ptr %97, i64 0, i64 %99
  %101 = load i32, ptr %100, align 4, !tbaa !10
  %102 = load ptr, ptr %7, align 8, !tbaa !30
  %103 = getelementptr inbounds nuw %struct.FLAC__Subframe_LPC, ptr %102, i32 0, i32 2
  %104 = load i32, ptr %103, align 4, !tbaa !69
  %105 = call i32 @FLAC__bitwriter_write_raw_int32(ptr noundef %95, i32 noundef %101, i32 noundef %104)
  %106 = icmp ne i32 %105, 0
  br i1 %106, label %108, label %107

107:                                              ; preds = %94
  store i32 0, ptr %6, align 4
  store i32 1, ptr %13, align 4
  br label %164

108:                                              ; preds = %94
  br label %109

109:                                              ; preds = %108
  %110 = load i32, ptr %12, align 4, !tbaa !10
  %111 = add i32 %110, 1
  store i32 %111, ptr %12, align 4, !tbaa !10
  br label %88, !llvm.loop !71

112:                                              ; preds = %88
  %113 = load ptr, ptr %11, align 8, !tbaa !8
  %114 = load ptr, ptr %7, align 8, !tbaa !30
  %115 = getelementptr inbounds nuw %struct.FLAC__Subframe_LPC, ptr %114, i32 0, i32 0
  %116 = call i32 @add_entropy_coding_method_(ptr noundef %113, ptr noundef %115)
  %117 = icmp ne i32 %116, 0
  br i1 %117, label %119, label %118

118:                                              ; preds = %112
  store i32 0, ptr %6, align 4
  store i32 1, ptr %13, align 4
  br label %164

119:                                              ; preds = %112
  %120 = load ptr, ptr %7, align 8, !tbaa !30
  %121 = getelementptr inbounds nuw %struct.FLAC__Subframe_LPC, ptr %120, i32 0, i32 0
  %122 = getelementptr inbounds nuw %struct.FLAC__EntropyCodingMethod, ptr %121, i32 0, i32 0
  %123 = load i32, ptr %122, align 8, !tbaa !72
  switch i32 %123, label %162 [
    i32 0, label %124
    i32 1, label %124
  ]

124:                                              ; preds = %119, %119
  %125 = load ptr, ptr %11, align 8, !tbaa !8
  %126 = load ptr, ptr %7, align 8, !tbaa !30
  %127 = getelementptr inbounds nuw %struct.FLAC__Subframe_LPC, ptr %126, i32 0, i32 6
  %128 = load ptr, ptr %127, align 8, !tbaa !73
  %129 = load i32, ptr %8, align 4, !tbaa !10
  %130 = load ptr, ptr %7, align 8, !tbaa !30
  %131 = getelementptr inbounds nuw %struct.FLAC__Subframe_LPC, ptr %130, i32 0, i32 1
  %132 = load i32, ptr %131, align 8, !tbaa !66
  %133 = load ptr, ptr %7, align 8, !tbaa !30
  %134 = getelementptr inbounds nuw %struct.FLAC__Subframe_LPC, ptr %133, i32 0, i32 0
  %135 = getelementptr inbounds nuw %struct.FLAC__EntropyCodingMethod, ptr %134, i32 0, i32 1
  %136 = getelementptr inbounds nuw %struct.FLAC__EntropyCodingMethod_PartitionedRice, ptr %135, i32 0, i32 1
  %137 = load ptr, ptr %136, align 8, !tbaa !18
  %138 = getelementptr inbounds nuw %struct.FLAC__EntropyCodingMethod_PartitionedRiceContents, ptr %137, i32 0, i32 0
  %139 = load ptr, ptr %138, align 8, !tbaa !58
  %140 = load ptr, ptr %7, align 8, !tbaa !30
  %141 = getelementptr inbounds nuw %struct.FLAC__Subframe_LPC, ptr %140, i32 0, i32 0
  %142 = getelementptr inbounds nuw %struct.FLAC__EntropyCodingMethod, ptr %141, i32 0, i32 1
  %143 = getelementptr inbounds nuw %struct.FLAC__EntropyCodingMethod_PartitionedRice, ptr %142, i32 0, i32 1
  %144 = load ptr, ptr %143, align 8, !tbaa !18
  %145 = getelementptr inbounds nuw %struct.FLAC__EntropyCodingMethod_PartitionedRiceContents, ptr %144, i32 0, i32 1
  %146 = load ptr, ptr %145, align 8, !tbaa !60
  %147 = load ptr, ptr %7, align 8, !tbaa !30
  %148 = getelementptr inbounds nuw %struct.FLAC__Subframe_LPC, ptr %147, i32 0, i32 0
  %149 = getelementptr inbounds nuw %struct.FLAC__EntropyCodingMethod, ptr %148, i32 0, i32 1
  %150 = getelementptr inbounds nuw %struct.FLAC__EntropyCodingMethod_PartitionedRice, ptr %149, i32 0, i32 0
  %151 = load i32, ptr %150, align 8, !tbaa !18
  %152 = load ptr, ptr %7, align 8, !tbaa !30
  %153 = getelementptr inbounds nuw %struct.FLAC__Subframe_LPC, ptr %152, i32 0, i32 0
  %154 = getelementptr inbounds nuw %struct.FLAC__EntropyCodingMethod, ptr %153, i32 0, i32 0
  %155 = load i32, ptr %154, align 8, !tbaa !72
  %156 = icmp eq i32 %155, 1
  %157 = zext i1 %156 to i32
  %158 = call i32 @add_residual_partitioned_rice_(ptr noundef %125, ptr noundef %128, i32 noundef %129, i32 noundef %132, ptr noundef %139, ptr noundef %146, i32 noundef %151, i32 noundef %157)
  %159 = icmp ne i32 %158, 0
  br i1 %159, label %161, label %160

160:                                              ; preds = %124
  store i32 0, ptr %6, align 4
  store i32 1, ptr %13, align 4
  br label %164

161:                                              ; preds = %124
  br label %163

162:                                              ; preds = %119
  br label %163

163:                                              ; preds = %162, %161
  store i32 1, ptr %6, align 4
  store i32 1, ptr %13, align 4
  br label %164

164:                                              ; preds = %163, %160, %118, %107, %86, %77, %63, %43, %33
  call void @llvm.lifetime.end.p0(i64 4, ptr %12) #4
  %165 = load i32, ptr %6, align 4
  ret i32 %165
}