; Function Attrs: nounwind sspstrong uwtable
define hidden range(i32 0, 2) i32 @FLAC__subframe_add_lpc(ptr noundef readonly captures(none) %0, i32 noundef %1, i32 noundef %2, i32 noundef %3, ptr noundef %4) local_unnamed_addr #0 {
  %6 = load i32, ptr @FLAC__SUBFRAME_TYPE_LPC_BYTE_ALIGNED_MASK, align 4, !tbaa !11
  %7 = getelementptr inbounds nuw i8, ptr %0, i64 24
  %8 = load i32, ptr %7, align 8, !tbaa !60
  %9 = shl i32 %8, 1
  %10 = add i32 %9, -2
  %.not = icmp ne i32 %3, 0
  %11 = zext i1 %.not to i32
  %12 = or i32 %6, %11
  %13 = or i32 %12, %10
  %14 = load i32, ptr @FLAC__SUBFRAME_ZERO_PAD_LEN, align 4, !tbaa !11
  %15 = load i32, ptr @FLAC__SUBFRAME_TYPE_LEN, align 4, !tbaa !11
  %16 = add i32 %15, %14
  %17 = load i32, ptr @FLAC__SUBFRAME_WASTED_BITS_FLAG_LEN, align 4, !tbaa !11
  %18 = add i32 %16, %17
  %19 = tail call i32 @FLAC__bitwriter_write_raw_uint32(ptr noundef %4, i32 noundef %13, i32 noundef %18) #6
  %.not37 = icmp eq i32 %19, 0
  br i1 %.not37, label %add_entropy_coding_method_.exit.thread, label %20

20:                                               ; preds = %5
  br i1 %.not, label %21, label %24

21:                                               ; preds = %20
  %22 = add i32 %3, -1
  %23 = tail call i32 @FLAC__bitwriter_write_unary_unsigned(ptr noundef %4, i32 noundef %22) #6
  %.not38 = icmp eq i32 %23, 0
  br i1 %.not38, label %add_entropy_coding_method_.exit.thread, label %24

24:                                               ; preds = %21, %20
  %25 = load i32, ptr %7, align 8, !tbaa !60
  %.not54 = icmp eq i32 %25, 0
  br i1 %.not54, label %._crit_edge, label %.lr.ph

.lr.ph:                                           ; preds = %24
  %26 = getelementptr inbounds nuw i8, ptr %0, i64 168
  br label %31

27:                                               ; preds = %31
  %indvars.iv.next = add nuw nsw i64 %indvars.iv, 1
  %28 = load i32, ptr %7, align 8, !tbaa !60
  %29 = zext i32 %28 to i64
  %30 = icmp samesign ult i64 %indvars.iv.next, %29
  br i1 %30, label %31, label %._crit_edge, !llvm.loop !62

31:                                               ; preds = %.lr.ph, %27
  %indvars.iv = phi i64 [ 0, %.lr.ph ], [ %indvars.iv.next, %27 ]
  %32 = getelementptr inbounds nuw [32 x i64], ptr %26, i64 0, i64 %indvars.iv
  %33 = load i64, ptr %32, align 8, !tbaa !50
  %34 = tail call i32 @FLAC__bitwriter_write_raw_int64(ptr noundef %4, i64 noundef %33, i32 noundef %2) #6
  %.not44 = icmp eq i32 %34, 0
  br i1 %.not44, label %add_entropy_coding_method_.exit.thread, label %27

._crit_edge:                                      ; preds = %27, %24
  %35 = getelementptr inbounds nuw i8, ptr %0, i64 28
  %36 = load i32, ptr %35, align 4, !tbaa !63
  %37 = add i32 %36, -1
  %38 = load i32, ptr @FLAC__SUBFRAME_LPC_QLP_COEFF_PRECISION_LEN, align 4, !tbaa !11
  %39 = tail call i32 @FLAC__bitwriter_write_raw_uint32(ptr noundef %4, i32 noundef %37, i32 noundef %38) #6
  %.not39 = icmp eq i32 %39, 0
  br i1 %.not39, label %add_entropy_coding_method_.exit.thread, label %40

40:                                               ; preds = %._crit_edge
  %41 = getelementptr inbounds nuw i8, ptr %0, i64 32
  %42 = load i32, ptr %41, align 8, !tbaa !64
  %43 = load i32, ptr @FLAC__SUBFRAME_LPC_QLP_SHIFT_LEN, align 4, !tbaa !11
  %44 = tail call i32 @FLAC__bitwriter_write_raw_int32(ptr noundef %4, i32 noundef %42, i32 noundef %43) #6
  %.not40 = icmp eq i32 %44, 0
  br i1 %.not40, label %add_entropy_coding_method_.exit.thread, label %.preheader

.preheader:                                       ; preds = %40
  %45 = load i32, ptr %7, align 8, !tbaa !60
  %.not55 = icmp eq i32 %45, 0
  br i1 %.not55, label %._crit_edge53, label %.lr.ph52

.lr.ph52:                                         ; preds = %.preheader
  %46 = getelementptr inbounds nuw i8, ptr %0, i64 36
  br label %51

47:                                               ; preds = %51
  %indvars.iv.next59 = add nuw nsw i64 %indvars.iv58, 1
  %48 = load i32, ptr %7, align 8, !tbaa !60
  %49 = zext i32 %48 to i64
  %50 = icmp samesign ult i64 %indvars.iv.next59, %49
  br i1 %50, label %51, label %._crit_edge53, !llvm.loop !65

51:                                               ; preds = %.lr.ph52, %47
  %indvars.iv58 = phi i64 [ 0, %.lr.ph52 ], [ %indvars.iv.next59, %47 ]
  %52 = getelementptr inbounds nuw [32 x i32], ptr %46, i64 0, i64 %indvars.iv58
  %53 = load i32, ptr %52, align 4, !tbaa !11
  %54 = load i32, ptr %35, align 4, !tbaa !63
  %55 = tail call i32 @FLAC__bitwriter_write_raw_int32(ptr noundef %4, i32 noundef %53, i32 noundef %54) #6
  %.not43 = icmp eq i32 %55, 0
  br i1 %.not43, label %add_entropy_coding_method_.exit.thread, label %47

._crit_edge53:                                    ; preds = %47, %.preheader
  %56 = load i32, ptr %0, align 8, !tbaa !51
  %57 = load i32, ptr @FLAC__ENTROPY_CODING_METHOD_TYPE_LEN, align 4, !tbaa !11
  %58 = tail call i32 @FLAC__bitwriter_write_raw_uint32(ptr noundef %4, i32 noundef %56, i32 noundef %57) #6
  %.not.i = icmp eq i32 %58, 0
  br i1 %.not.i, label %add_entropy_coding_method_.exit.thread, label %59

59:                                               ; preds = %._crit_edge53
  %60 = load i32, ptr %0, align 8, !tbaa !51
  %switch.i = icmp ult i32 %60, 2
  br i1 %switch.i, label %61, label %add_entropy_coding_method_.exit.thread47

61:                                               ; preds = %59
  %62 = getelementptr inbounds nuw i8, ptr %0, i64 8
  %63 = load i32, ptr %62, align 8, !tbaa !14
  %64 = load i32, ptr @FLAC__ENTROPY_CODING_METHOD_PARTITIONED_RICE_ORDER_LEN, align 4, !tbaa !11
  %65 = tail call i32 @FLAC__bitwriter_write_raw_uint32(ptr noundef %4, i32 noundef %63, i32 noundef %64) #6
  %.not5.i = icmp eq i32 %65, 0
  br i1 %.not5.i, label %add_entropy_coding_method_.exit.thread, label %add_entropy_coding_method_.exit

add_entropy_coding_method_.exit:                  ; preds = %61
  %.pr = load i32, ptr %0, align 8, !tbaa !66
  %switch = icmp ult i32 %.pr, 2
  br i1 %switch, label %66, label %add_entropy_coding_method_.exit.thread47

66:                                               ; preds = %add_entropy_coding_method_.exit
  %67 = getelementptr inbounds nuw i8, ptr %0, i64 424
  %68 = load ptr, ptr %67, align 8, !tbaa !67
  %69 = load i32, ptr %7, align 8, !tbaa !60
  %70 = getelementptr inbounds nuw i8, ptr %0, i64 16
  %71 = load ptr, ptr %70, align 8, !tbaa !14
  %72 = load ptr, ptr %71, align 8, !tbaa !54
  %73 = getelementptr inbounds nuw i8, ptr %71, i64 8
  %74 = load ptr, ptr %73, align 8, !tbaa !56
  %75 = load i32, ptr %62, align 8, !tbaa !14
  %76 = icmp eq i32 %.pr, 1
  %77 = zext i1 %76 to i32
  %78 = tail call fastcc i32 @add_residual_partitioned_rice_(ptr noundef %4, ptr noundef %68, i32 noundef %1, i32 noundef %69, ptr noundef %72, ptr noundef %74, i32 noundef %75, i32 noundef %77)
  %.not42 = icmp eq i32 %78, 0
  br i1 %.not42, label %add_entropy_coding_method_.exit.thread, label %add_entropy_coding_method_.exit.thread47

add_entropy_coding_method_.exit.thread47:         ; preds = %59, %add_entropy_coding_method_.exit, %66
  br label %add_entropy_coding_method_.exit.thread

add_entropy_coding_method_.exit.thread:           ; preds = %31, %51, %61, %._crit_edge53, %66, %40, %._crit_edge, %21, %5, %add_entropy_coding_method_.exit.thread47
  %.035 = phi i32 [ 1, %add_entropy_coding_method_.exit.thread47 ], [ 0, %5 ], [ 0, %21 ], [ 0, %._crit_edge ], [ 0, %40 ], [ 0, %66 ], [ 0, %._crit_edge53 ], [ 0, %61 ], [ 0, %51 ], [ 0, %31 ]
  ret i32 %.035
}